Certificate:
    Data:
        Version: 3 (0x2)
        Serial Number: 1 (0x1)
        Signature Algorithm: sha1WithRSAEncryption
        Issuer: C=US, O=SmoothStack, OU=SmoothStack Certificate Authority, CN=SmoothStack Root CA
        Validity
            Not Before: Mar 13 07:31:45 2022 GMT
            Not After : Dec 31 23:59:59 2030 GMT
        Subject: C=US, O=SmoothStack, OU=SmoothStack Certificate Authority, CN=SmoothStack Root CA
        Subject Public Key Info:
            Public Key Algorithm: rsaEncryption
                RSA Public-Key: (2048 bit)
                Modulus:
                    00:c5:12:86:0b:55:07:92:43:67:b3:c6:89:33:b9:
                    d8:10:26:68:95:96:b5:ff:8a:fe:c9:94:35:b5:9f:
                    63:10:75:46:a6:b4:d4:77:ce:45:bd:3e:52:17:4a:
                    77:4d:06:16:d9:e7:b5:ea:26:60:e1:8e:8a:a5:37:
                    41:17:df:c8:b4:9a:01:fb:09:f8:07:84:32:2a:01:
                    57:13:5c:f7:9b:9a:9e:1e:5d:69:8e:17:6f:48:4f:
                    df:d7:2b:a1:87:35:94:4e:ce:db:b8:fb:54:2a:19:
                    9e:79:56:eb:e7:be:22:86:54:08:dc:47:0d:b2:fb:
                    19:ae:81:11:80:6f:e4:19:30:9c:3f:e8:aa:45:4f:
                    bf:41:59:c6:23:4d:d6:d9:e4:48:6f:15:a3:91:ac:
                    c8:e0:d6:2d:be:f3:30:29:b6:1f:18:f9:1d:d0:f2:
                    86:ee:4a:03:0d:77:f0:14:5c:6e:53:dd:e0:5e:59:
                    a0:46:cd:78:85:e2:8f:3e:47:0f:5f:2d:76:90:e0:
                    f4:6d:2c:28:8f:97:4a:55:b0:c4:4e:c1:64:b0:94:
                    13:2d:1e:8e:a1:41:10:8f:64:ce:6e:b5:26:6d:3e:
                    f6:e8:f3:3f:6e:90:a6:fc:69:69:17:f0:13:45:bc:
                    d7:14:28:9c:fb:d9:9a:bc:07:20:f6:c4:ff:a4:2a:
                    8f:97
                Exponent: 65537 (0x10001)
        X509v3 extensions:
            X509v3 Key Usage: critical
                Certificate Sign, CRL Sign
            X509v3 Basic Constraints: critical
                CA:TRUE
            X509v3 Subject Key Identifier: 
                93:AD:63:87:03:ED:B7:06:4F:4D:16:C7:67:44:7D:2E:8B:6C:0F:03
            X509v3 Authority Key Identifier: 
                keyid:93:AD:63:87:03:ED:B7:06:4F:4D:16:C7:67:44:7D:2E:8B:6C:0F:03

    Signature Algorithm: sha1WithRSAEncryption
         16:c2:24:40:98:0f:c1:24:26:27:03:68:32:83:81:3f:13:a1:
         87:20:b3:41:42:f6:fa:5b:f4:d1:22:c4:a1:3c:50:de:0f:29:
         f6:90:71:53:2c:66:2f:18:8d:fd:1c:53:a2:d4:23:c5:94:fd:
         b0:6c:be:a4:ef:fb:8a:5a:08:02:12:bc:42:34:1d:a0:a0:23:
         d9:0c:c9:7c:0d:23:23:fb:fb:d1:4f:f9:61:d5:55:88:41:e9:
         e0:1a:9c:77:e1:5b:8c:94:5d:03:9a:0b:5c:02:88:5e:e7:72:
         97:8f:e0:f8:77:69:da:7f:97:ce:e7:39:83:bf:ad:c3:5d:a6:
         78:7a:82:4f:8d:7b:85:bb:d6:e8:03:68:5b:27:61:c7:c1:8e:
         56:f1:26:d2:35:a7:27:13:de:3e:13:86:30:5a:11:d0:67:c8:
         61:78:f2:30:ae:f3:10:da:39:e8:76:8d:64:1d:bb:01:50:f5:
         bb:83:06:20:4a:09:03:2d:6c:ca:cc:6d:5d:1f:59:8f:9a:e3:
         f8:4f:6a:e7:92:7c:4b:c5:6c:6f:88:de:19:bc:84:3a:70:78:
         de:51:ec:07:e1:f6:8b:1a:46:ad:a4:3c:6a:71:f2:fc:49:78:
         ae:b1:7d:28:53:d9:ad:f9:74:f9:aa:dd:29:0a:32:5d:e3:40:
         36:d8:aa:f1
-----BEGIN CERTIFICATE-----
MIIDuDCCAqCgAwIBAgIBATANBgkqhkiG9w0BAQUFADBtMQswCQYDVQQGEwJVUzEU
MBIGA1UECgwLU21vb3RoU3RhY2sxKjAoBgNVBAsMIVNtb290aFN0YWNrIENlcnRp
ZmljYXRlIEF1dGhvcml0eTEcMBoGA1UEAwwTU21vb3RoU3RhY2sgUm9vdCBDQTAe
Fw0yMjAzMTMwNzMxNDVaFw0zMDEyMzEyMzU5NTlaMG0xCzAJBgNVBAYTAlVTMRQw
EgYDVQQKDAtTbW9vdGhTdGFjazEqMCgGA1UECwwhU21vb3RoU3RhY2sgQ2VydGlm
aWNhdGUgQXV0aG9yaXR5MRwwGgYDVQQDDBNTbW9vdGhTdGFjayBSb290IENBMIIB
IjANBgkqhkiG9w0BAQEFAAOCAQ8AMIIBCgKCAQEAxRKGC1UHkkNns8aJM7nYECZo
lZa1/4r+yZQ1tZ9jEHVGprTUd85FvT5SF0p3TQYW2ee16iZg4Y6KpTdBF9/ItJoB
+wn4B4QyKgFXE1z3m5qeHl1pjhdvSE/f1yuhhzWUTs7buPtUKhmeeVbr574ihlQI
3EcNsvsZroERgG/kGTCcP+iqRU+/QVnGI03W2eRIbxWjkazI4NYtvvMwKbYfGPkd
0PKG7koDDXfwFFxuU93gXlmgRs14heKPPkcPXy12kOD0bSwoj5dKVbDETsFksJQT
LR6OoUEQj2TObrUmbT726PM/bpCm/GlpF/ATRbzXFCic+9mavAcg9sT/pCqPlwID
AQABo2MwYTAOBgNVHQ8BAf8EBAMCAQYwDwYDVR0TAQH/BAUwAwEB/zAdBgNVHQ4E
FgQUk61jhwPttwZPTRbHZ0R9LotsDwMwHwYDVR0jBBgwFoAUk61jhwPttwZPTRbH
Z0R9LotsDwMwDQYJKoZIhvcNAQEFBQADggEBABbCJECYD8EkJicDaDKDgT8ToYcg
s0FC9vpb9NEixKE8UN4PKfaQcVMsZi8Yjf0cU6LUI8WU/bBsvqTv+4paCAISvEI0
HaCgI9kMyXwNIyP7+9FP+WHVVYhB6eAanHfhW4yUXQOaC1wCiF7ncpeP4Ph3adp/
l87nOYO/rcNdpnh6gk+Ne4W71ugDaFsnYcfBjlbxJtI1pycT3j4ThjBaEdBnyGF4
8jCu8xDaOeh2jWQduwFQ9buDBiBKCQMtbMrMbV0fWY+a4/hPaueSfEvFbG+I3hm8
hDpweN5R7Afh9osaRq2kPGpx8vxJeK6xfShT2a35dPmq3SkKMl3jQDbYqvE=
-----END CERTIFICATE-----
