Certificate:
    Data:
        Version: 3 (0x2)
        Serial Number: 2 (0x2)
        Signature Algorithm: sha1WithRSAEncryption
        Issuer: C=US, O=SmoothStack, OU=SmoothStack Certificate Authority, CN=SmoothStack Root CA
        Validity
            Not Before: Mar 13 07:32:12 2022 GMT
            Not After : Mar 12 07:32:12 2032 GMT
        Subject: C=US, O=SmoothStack, OU=SmoothStack Certificate Authority, CN=SmoothStack Server CA
        Subject Public Key Info:
            Public Key Algorithm: rsaEncryption
                RSA Public-Key: (2048 bit)
                Modulus:
                    00:b3:46:0b:08:e0:0d:91:ce:4b:e4:ca:d4:55:d1:
                    e9:a6:38:e1:a9:30:55:d3:23:0d:65:28:b4:7b:ae:
                    ac:9f:91:8c:c6:2d:f3:06:61:6d:e7:dd:aa:c4:1d:
                    b5:4d:4f:40:5f:a9:c2:5e:51:ab:e0:26:42:25:d8:
                    bd:e0:52:dc:f7:c9:fa:88:e1:17:ed:52:8e:15:be:
                    a3:9f:47:53:a1:84:11:62:c2:97:e5:34:9b:8f:21:
                    7e:19:6f:29:cc:e9:e1:56:15:57:31:07:1c:49:6d:
                    24:fb:c4:26:95:26:f2:31:8f:c2:98:7b:b4:fd:7e:
                    fa:00:76:a3:d9:a0:b7:a9:b6:ff:7f:21:ba:80:f6:
                    d0:dc:47:c2:2d:db:42:9b:9a:c6:c7:7e:7c:0c:0f:
                    11:d0:f8:2c:5d:86:7a:d6:fd:60:7e:38:c8:9f:9b:
                    d4:15:7a:c2:d0:5d:67:1f:10:e2:94:80:fa:5c:43:
                    ef:e1:de:5e:58:70:2f:cb:59:30:5d:c8:ed:e0:26:
                    1e:16:a4:53:87:8a:d7:b2:cd:7b:df:21:74:c9:43:
                    65:91:1c:20:82:b2:be:26:ae:50:b4:8d:64:c8:d4:
                    55:c9:f7:d6:db:e2:b0:2e:ac:fd:7c:c0:b3:b0:61:
                    47:c3:64:c2:d1:76:b4:57:fd:3c:f1:38:16:e3:e7:
                    15:09
                Exponent: 65537 (0x10001)
        X509v3 extensions:
            X509v3 Key Usage: critical
                Certificate Sign, CRL Sign
            X509v3 Basic Constraints: critical
                CA:TRUE, pathlen:0
            X509v3 Subject Key Identifier: 
                1A:E0:EA:91:5C:00:3E:E2:71:DC:3B:15:B6:E0:D2:02:A7:E4:79:AD
            X509v3 Authority Key Identifier: 
                keyid:93:AD:63:87:03:ED:B7:06:4F:4D:16:C7:67:44:7D:2E:8B:6C:0F:03

            Authority Information Access: 
                CA Issuers - URI:https://smoothstack.com/root.cer

            X509v3 CRL Distribution Points: 

                Full Name:
                  URI:https://smoothstack.com/root.crl

    Signature Algorithm: sha1WithRSAEncryption
         64:86:4d:4c:a2:24:bd:9f:c0:07:46:f0:27:0b:f6:fe:46:02:
         5e:46:cf:87:68:3a:3b:94:75:ee:85:92:39:07:51:1d:04:39:
         47:ee:79:db:13:31:de:50:fc:77:86:4b:2a:02:ad:39:41:3e:
         8b:89:96:6e:8e:5f:7a:02:60:85:9b:d7:5e:9e:95:71:44:0c:
         3f:a6:dd:e1:c6:23:7f:51:33:86:c3:e0:58:ac:97:70:9f:17:
         55:3e:87:9d:fa:05:7b:b8:17:a6:d7:3a:dc:a5:3f:bc:2f:d8:
         7e:5b:87:0b:07:67:95:26:71:ef:77:b2:be:48:0d:25:a8:e2:
         04:df:5b:41:b7:2c:66:20:0e:ad:15:fa:ad:37:07:bf:18:03:
         2c:b1:25:94:f7:f7:00:ca:8a:99:14:22:bf:9b:3b:87:71:86:
         ea:3c:a1:74:34:48:06:f8:6d:69:cd:bd:9f:e5:25:d1:46:0c:
         aa:c8:06:b3:59:00:f2:ac:d8:5d:4f:01:10:11:10:7a:69:6c:
         c2:e4:2c:fd:d6:6c:d2:3d:00:13:9a:87:f7:ed:d1:2f:58:b0:
         c6:3a:9a:c4:b8:eb:67:b9:35:1e:de:a0:79:3f:12:4a:6d:6b:
         a7:bf:f6:c9:41:69:30:35:9e:c5:54:eb:2a:39:5a:68:92:70:
         71:c3:ab:91
-----BEGIN CERTIFICATE-----
MIIEMDCCAxigAwIBAgIBAjANBgkqhkiG9w0BAQUFADBtMQswCQYDVQQGEwJVUzEU
MBIGA1UECgwLU21vb3RoU3RhY2sxKjAoBgNVBAsMIVNtb290aFN0YWNrIENlcnRp
ZmljYXRlIEF1dGhvcml0eTEcMBoGA1UEAwwTU21vb3RoU3RhY2sgUm9vdCBDQTAe
Fw0yMjAzMTMwNzMyMTJaFw0zMjAzMTIwNzMyMTJaMG8xCzAJBgNVBAYTAlVTMRQw
EgYDVQQKDAtTbW9vdGhTdGFjazEqMCgGA1UECwwhU21vb3RoU3RhY2sgQ2VydGlm
aWNhdGUgQXV0aG9yaXR5MR4wHAYDVQQDDBVTbW9vdGhTdGFjayBTZXJ2ZXIgQ0Ew
ggEiMA0GCSqGSIb3DQEBAQUAA4IBDwAwggEKAoIBAQCzRgsI4A2RzkvkytRV0emm
OOGpMFXTIw1lKLR7rqyfkYzGLfMGYW3n3arEHbVNT0BfqcJeUavgJkIl2L3gUtz3
yfqI4RftUo4VvqOfR1OhhBFiwpflNJuPIX4ZbynM6eFWFVcxBxxJbST7xCaVJvIx
j8KYe7T9fvoAdqPZoLeptv9/IbqA9tDcR8It20KbmsbHfnwMDxHQ+CxdhnrW/WB+
OMifm9QVesLQXWcfEOKUgPpcQ+/h3l5YcC/LWTBdyO3gJh4WpFOHiteyzXvfIXTJ
Q2WRHCCCsr4mrlC0jWTI1FXJ99bb4rAurP18wLOwYUfDZMLRdrRX/TzxOBbj5xUJ
AgMBAAGjgdgwgdUwDgYDVR0PAQH/BAQDAgEGMBIGA1UdEwEB/wQIMAYBAf8CAQAw
HQYDVR0OBBYEFBrg6pFcAD7icdw7Fbbg0gKn5HmtMB8GA1UdIwQYMBaAFJOtY4cD
7bcGT00Wx2dEfS6LbA8DMDwGCCsGAQUFBwEBBDAwLjAsBggrBgEFBQcwAoYgaHR0
cHM6Ly9zbW9vdGhzdGFjay5jb20vcm9vdC5jZXIwMQYDVR0fBCowKDAmoCSgIoYg
aHR0cHM6Ly9zbW9vdGhzdGFjay5jb20vcm9vdC5jcmwwDQYJKoZIhvcNAQEFBQAD
ggEBAGSGTUyiJL2fwAdG8CcL9v5GAl5Gz4doOjuUde6FkjkHUR0EOUfuedsTMd5Q
/HeGSyoCrTlBPouJlm6OX3oCYIWb116elXFEDD+m3eHGI39RM4bD4Fisl3CfF1U+
h536BXu4F6bXOtylP7wv2H5bhwsHZ5Umce93sr5IDSWo4gTfW0G3LGYgDq0V+q03
B78YAyyxJZT39wDKipkUIr+bO4dxhuo8oXQ0SAb4bWnNvZ/lJdFGDKrIBrNZAPKs
2F1PARAREHppbMLkLP3WbNI9ABOah/ft0S9YsMY6msS462e5NR7eoHk/Ekpta6e/
9slBaTA1nsVU6yo5WmiScHHDq5E=
-----END CERTIFICATE-----
