Certificate:
    Data:
        Version: 3 (0x2)
        Serial Number: 3 (0x3)
        Signature Algorithm: sha1WithRSAEncryption
        Issuer: C=NO, O=Green AS, OU=Green Certificate Authority, CN=Green Root CA
        Validity
            Not Before: Feb 10 23:44:25 2022 GMT
            Not After : Feb 10 23:44:25 2032 GMT
        Subject: C=NO, O=Green AS, OU=Green Certificate Authority, CN=Green Software CA
        Subject Public Key Info:
            Public Key Algorithm: rsaEncryption
                RSA Public-Key: (2048 bit)
                Modulus:
                    00:cc:aa:f1:3a:f8:75:e0:10:1e:4b:4e:b4:c0:3c:
                    bd:5d:ca:89:9f:a4:c4:7e:18:16:f9:78:77:b4:53:
                    84:4d:4b:75:18:0a:ec:14:f1:a3:63:d7:12:0a:97:
                    8f:d8:e3:ee:1c:4b:9a:47:c3:86:06:9c:42:98:b4:
                    6f:ce:d5:be:70:b3:fe:47:e1:8c:1f:31:fa:85:42:
                    ef:9a:9c:5d:9a:94:39:51:ef:de:6e:5c:dd:3f:ad:
                    6a:10:81:ff:6d:ee:d0:40:54:bf:aa:b9:e1:ad:60:
                    b8:70:a9:8d:1d:e0:83:36:11:c9:4d:05:15:73:cf:
                    f0:36:f4:2d:ce:37:fd:8b:a4:b8:40:03:d8:81:6f:
                    6b:a5:87:cd:1c:1d:65:e2:b9:25:f0:72:1f:81:10:
                    a7:2d:56:65:6e:ed:15:43:93:ba:df:f3:a9:b5:06:
                    43:5c:cf:70:9d:a6:67:05:58:66:90:97:11:e7:2f:
                    ff:46:9d:55:91:ac:4c:8a:2b:9e:d3:e2:cb:fe:88:
                    d6:00:b7:83:a3:7d:8c:1f:79:0d:8f:f6:47:d2:47:
                    cf:b9:c3:3b:b4:99:44:6f:20:24:5e:14:e9:de:13:
                    78:dc:b6:7a:4c:5f:4e:ff:64:39:cb:ec:ee:85:b4:
                    1e:1e:f9:8f:1a:f4:e2:0f:ec:30:66:ba:9c:f2:29:
                    6a:6b
                Exponent: 65537 (0x10001)
        X509v3 extensions:
            X509v3 Key Usage: critical
                Certificate Sign, CRL Sign
            X509v3 Basic Constraints: critical
                CA:TRUE, pathlen:0
            X509v3 Subject Key Identifier: 
                ED:60:6B:78:96:06:BF:F5:FE:3B:D7:FD:C8:65:83:E4:40:92:FF:1B
            X509v3 Authority Key Identifier: 
                keyid:2C:0A:18:32:1D:3C:A1:E2:6F:E4:DF:42:7E:B6:ED:D5:B8:86:5E:CE

            Authority Information Access: 
                CA Issuers - URI:http://green.no/ca/root-ca.cer

            X509v3 CRL Distribution Points: 

                Full Name:
                  URI:http://green.no/ca/root-ca.crl

    Signature Algorithm: sha1WithRSAEncryption
         79:4a:06:c0:95:53:fe:fc:14:66:23:ac:5b:87:a2:5e:bf:9d:
         35:9c:d8:a0:7f:22:ca:66:31:21:c5:4f:5e:4b:1e:34:8c:e0:
         6f:7f:85:01:ec:70:18:74:18:23:f8:3a:e2:29:37:1e:b6:cb:
         05:a3:ec:f2:77:0e:32:60:81:fe:ad:dd:58:ea:d7:28:78:1e:
         18:e1:7a:b9:30:db:c5:1b:01:fa:aa:47:75:8b:b2:6a:e1:9b:
         0c:39:b7:ee:9e:ba:d4:88:bb:48:93:73:06:f4:4d:43:00:7a:
         1b:cc:16:1c:e5:2a:77:e6:7a:c6:22:0d:0d:4e:57:0a:b0:07:
         64:38:d8:c1:03:1c:27:3f:d2:c0:de:22:88:50:16:29:b4:57:
         97:c2:91:cc:fa:fd:b9:a2:f7:68:c5:1b:c3:c0:4b:8a:d8:45:
         dc:be:fe:09:13:0e:65:74:ad:fe:7b:63:20:a4:69:2b:17:a1:
         88:d5:0d:ab:c6:bf:bd:19:33:93:09:15:b2:a9:d9:12:09:a0:
         5c:84:2b:91:e0:a6:a8:71:fc:0f:98:40:f5:81:9a:41:23:8b:
         7a:f7:57:11:11:cd:89:56:4b:b7:29:5c:91:75:3d:8a:59:b5:
         e6:b8:87:f5:c7:6e:4b:6e:fc:ec:bf:01:0f:cd:26:97:92:84:
         18:3d:00:19
-----BEGIN CERTIFICATE-----
MIIEEDCCAvigAwIBAgIBAzANBgkqhkiG9w0BAQUFADBeMQswCQYDVQQGEwJOTzER
MA8GA1UECgwIR3JlZW4gQVMxJDAiBgNVBAsMG0dyZWVuIENlcnRpZmljYXRlIEF1
dGhvcml0eTEWMBQGA1UEAwwNR3JlZW4gUm9vdCBDQTAeFw0yMjAyMTAyMzQ0MjVa
Fw0zMjAyMTAyMzQ0MjVaMGIxCzAJBgNVBAYTAk5PMREwDwYDVQQKDAhHcmVlbiBB
UzEkMCIGA1UECwwbR3JlZW4gQ2VydGlmaWNhdGUgQXV0aG9yaXR5MRowGAYDVQQD
DBFHcmVlbiBTb2Z0d2FyZSBDQTCCASIwDQYJKoZIhvcNAQEBBQADggEPADCCAQoC
ggEBAMyq8Tr4deAQHktOtMA8vV3KiZ+kxH4YFvl4d7RThE1LdRgK7BTxo2PXEgqX
j9jj7hxLmkfDhgacQpi0b87VvnCz/kfhjB8x+oVC75qcXZqUOVHv3m5c3T+tahCB
/23u0EBUv6q54a1guHCpjR3ggzYRyU0FFXPP8Db0Lc43/YukuEAD2IFva6WHzRwd
ZeK5JfByH4EQpy1WZW7tFUOTut/zqbUGQ1zPcJ2mZwVYZpCXEecv/0adVZGsTIor
ntPiy/6I1gC3g6N9jB95DY/2R9JHz7nDO7SZRG8gJF4U6d4TeNy2ekxfTv9kOcvs
7oW0Hh75jxr04g/sMGa6nPIpamsCAwEAAaOB1DCB0TAOBgNVHQ8BAf8EBAMCAQYw
EgYDVR0TAQH/BAgwBgEB/wIBADAdBgNVHQ4EFgQU7WBreJYGv/X+O9f9yGWD5ECS
/xswHwYDVR0jBBgwFoAULAoYMh08oeJv5N9Cfrbt1biGXs4wOgYIKwYBBQUHAQEE
LjAsMCoGCCsGAQUFBzAChh5odHRwOi8vZ3JlZW4ubm8vY2Evcm9vdC1jYS5jZXIw
LwYDVR0fBCgwJjAkoCKgIIYeaHR0cDovL2dyZWVuLm5vL2NhL3Jvb3QtY2EuY3Js
MA0GCSqGSIb3DQEBBQUAA4IBAQB5SgbAlVP+/BRmI6xbh6Jev501nNigfyLKZjEh
xU9eSx40jOBvf4UB7HAYdBgj+DriKTcetssFo+zydw4yYIH+rd1Y6tcoeB4Y4Xq5
MNvFGwH6qkd1i7Jq4ZsMObfunrrUiLtIk3MG9E1DAHobzBYc5Sp35nrGIg0NTlcK
sAdkONjBAxwnP9LA3iKIUBYptFeXwpHM+v25ovdoxRvDwEuK2EXcvv4JEw5ldK3+
e2MgpGkrF6GI1Q2rxr+9GTOTCRWyqdkSCaBchCuR4KaocfwPmED1gZpBI4t691cR
Ec2JVku3KVyRdT2KWbXmuIf1x25LbvzsvwEPzSaXkoQYPQAZ
-----END CERTIFICATE-----
