Certificate:
    Data:
        Version: 3 (0x2)
        Serial Number: 1 (0x1)
        Signature Algorithm: sha1WithRSAEncryption
        Issuer: C=NO, O=Green AS, OU=Green Certificate Authority, CN=Green Root CA
        Validity
            Not Before: Feb 15 05:59:53 2022 GMT
            Not After : Dec 31 23:59:59 2030 GMT
        Subject: C=NO, O=Green AS, OU=Green Certificate Authority, CN=Green Root CA
        Subject Public Key Info:
            Public Key Algorithm: rsaEncryption
                RSA Public-Key: (2048 bit)
                Modulus:
                    00:d4:52:e3:17:b2:55:43:14:cd:23:1f:00:20:42:
                    3f:a7:c3:31:63:02:28:68:c7:6d:52:1b:c9:25:95:
                    3d:1e:d6:7b:8b:3a:8b:01:78:1a:66:3f:d4:24:76:
                    c1:f2:3f:d1:ee:a2:3a:d3:a3:8a:01:72:51:fe:6a:
                    b6:79:b4:6b:69:82:d0:89:6a:1e:3c:06:8f:39:56:
                    ce:d2:58:e1:17:28:59:ea:39:04:9d:24:e6:af:f3:
                    27:50:9d:36:44:52:b7:84:3d:f8:59:19:bc:05:c3:
                    18:a5:2a:3c:28:24:f9:87:5c:2b:5c:04:88:58:0a:
                    b5:7c:da:19:a4:78:98:97:0b:78:89:6c:f0:38:a1:
                    89:f3:ba:1a:c8:21:d2:80:85:94:80:1d:7d:e0:57:
                    78:e8:74:6e:17:5b:85:04:0c:d5:97:2d:fc:75:ec:
                    fc:5a:3d:c6:e4:9c:9c:53:dc:31:cc:1f:5e:f3:a8:
                    b5:41:b0:30:32:a9:d6:60:6e:49:95:d5:55:7d:18:
                    dc:17:c4:95:ea:4f:9f:dc:03:dd:29:05:75:6c:43:
                    f9:18:04:f1:44:fa:6e:71:4e:e6:68:46:b2:12:f9:
                    2a:1b:8f:4c:fd:84:55:f7:89:8f:22:92:be:4a:36:
                    14:0c:d4:7c:07:1b:7d:dd:49:74:18:bb:31:d8:8c:
                    fb:2b
                Exponent: 65537 (0x10001)
        X509v3 extensions:
            X509v3 Key Usage: critical
                Certificate Sign, CRL Sign
            X509v3 Basic Constraints: critical
                CA:TRUE
            X509v3 Subject Key Identifier: 
                DE:11:7D:DE:6A:48:18:53:47:9F:F5:12:19:E0:38:DA:0B:D7:CD:67
            X509v3 Authority Key Identifier: 
                keyid:DE:11:7D:DE:6A:48:18:53:47:9F:F5:12:19:E0:38:DA:0B:D7:CD:67

    Signature Algorithm: sha1WithRSAEncryption
         33:62:27:14:df:e2:d7:60:4d:44:74:d9:b9:a3:17:f2:ca:6a:
         f6:36:ee:18:e9:19:74:53:51:c4:90:9c:d0:22:51:97:6e:ed:
         9b:83:b6:49:4b:f1:6f:62:84:96:d4:8e:3f:2a:40:8e:23:79:
         22:46:97:2e:d3:29:4b:34:76:11:a6:16:69:35:fe:7e:8f:db:
         5d:b3:d1:4d:5b:f8:4b:ca:86:e4:06:63:3b:6a:66:85:cd:a3:
         95:7a:a2:49:b0:f4:93:31:cd:71:f7:73:99:18:7b:7c:75:aa:
         f6:82:fb:7c:c2:d3:22:98:8b:70:5f:07:3d:8e:bb:d4:74:59:
         b1:17:26:af:86:f5:8f:03:7c:a0:42:15:db:b5:bd:ba:1a:b0:
         d0:dc:59:14:cf:fc:08:d7:a3:5e:4e:e8:4f:a1:71:37:9d:4b:
         9e:2d:1d:75:4a:90:84:37:a6:61:0c:9f:2a:57:49:e4:ec:b2:
         30:66:24:53:e7:85:3e:a5:20:57:a6:c4:3c:6a:ae:61:c1:65:
         99:60:9e:16:e4:fa:a6:81:02:39:81:80:ad:f6:d3:2a:ee:9b:
         eb:6e:0d:73:64:64:25:07:f1:fb:ce:bc:67:c9:6e:b1:0a:ce:
         2d:81:54:05:21:d0:6e:72:a9:19:41:59:50:3e:c3:35:10:a9:
         5f:f8:c1:aa
-----BEGIN CERTIFICATE-----
MIIDmjCCAoKgAwIBAgIBATANBgkqhkiG9w0BAQUFADBeMQswCQYDVQQGEwJOTzER
MA8GA1UECgwIR3JlZW4gQVMxJDAiBgNVBAsMG0dyZWVuIENlcnRpZmljYXRlIEF1
dGhvcml0eTEWMBQGA1UEAwwNR3JlZW4gUm9vdCBDQTAeFw0yMjAyMTUwNTU5NTNa
Fw0zMDEyMzEyMzU5NTlaMF4xCzAJBgNVBAYTAk5PMREwDwYDVQQKDAhHcmVlbiBB
UzEkMCIGA1UECwwbR3JlZW4gQ2VydGlmaWNhdGUgQXV0aG9yaXR5MRYwFAYDVQQD
DA1HcmVlbiBSb290IENBMIIBIjANBgkqhkiG9w0BAQEFAAOCAQ8AMIIBCgKCAQEA
1FLjF7JVQxTNIx8AIEI/p8MxYwIoaMdtUhvJJZU9HtZ7izqLAXgaZj/UJHbB8j/R
7qI606OKAXJR/mq2ebRraYLQiWoePAaPOVbO0ljhFyhZ6jkEnSTmr/MnUJ02RFK3
hD34WRm8BcMYpSo8KCT5h1wrXASIWAq1fNoZpHiYlwt4iWzwOKGJ87oayCHSgIWU
gB194Fd46HRuF1uFBAzVly38dez8Wj3G5JycU9wxzB9e86i1QbAwMqnWYG5JldVV
fRjcF8SV6k+f3APdKQV1bEP5GATxRPpucU7maEayEvkqG49M/YRV94mPIpK+SjYU
DNR8Bxt93Ul0GLsx2Iz7KwIDAQABo2MwYTAOBgNVHQ8BAf8EBAMCAQYwDwYDVR0T
AQH/BAUwAwEB/zAdBgNVHQ4EFgQU3hF93mpIGFNHn/USGeA42gvXzWcwHwYDVR0j
BBgwFoAU3hF93mpIGFNHn/USGeA42gvXzWcwDQYJKoZIhvcNAQEFBQADggEBADNi
JxTf4tdgTUR02bmjF/LKavY27hjpGXRTUcSQnNAiUZdu7ZuDtklL8W9ihJbUjj8q
QI4jeSJGly7TKUs0dhGmFmk1/n6P212z0U1b+EvKhuQGYztqZoXNo5V6okmw9JMx
zXH3c5kYe3x1qvaC+3zC0yKYi3BfBz2Ou9R0WbEXJq+G9Y8DfKBCFdu1vboasNDc
WRTP/AjXo15O6E+hcTedS54tHXVKkIQ3pmEMnypXSeTssjBmJFPnhT6lIFemxDxq
rmHBZZlgnhbk+qaBAjmBgK320yrum+tuDXNkZCUH8fvOvGfJbrEKzi2BVAUh0G5y
qRlBWVA+wzUQqV/4wao=
-----END CERTIFICATE-----
