Certificate:
    Data:
        Version: 3 (0x2)
        Serial Number: 2 (0x2)
        Signature Algorithm: sha1WithRSAEncryption
        Issuer: C=NO, O=Green AS, OU=Green Certificate Authority, CN=Green Root CA
        Validity
            Not Before: Feb 15 06:00:02 2022 GMT
            Not After : Feb 15 06:00:02 2032 GMT
        Subject: C=NO, O=Green AS, OU=Green Certificate Authority, CN=Green TLS CA
        Subject Public Key Info:
            Public Key Algorithm: rsaEncryption
                RSA Public-Key: (2048 bit)
                Modulus:
                    00:d1:48:e0:ac:11:1b:57:c3:ce:ff:e2:b7:df:fc:
                    97:70:04:9f:74:94:64:0d:3a:89:b9:28:6d:f5:ed:
                    37:38:2c:7c:9d:1b:c0:8b:09:e5:56:9f:aa:80:89:
                    14:1a:7e:4e:23:fb:6b:da:c4:4d:f7:c8:96:94:8b:
                    6d:87:e2:ab:bd:39:55:4e:4c:25:82:c0:05:97:47:
                    a7:ac:16:f6:32:df:58:de:53:a1:c3:f1:b1:22:0f:
                    60:b9:58:6c:e6:7f:bc:bb:bb:10:c9:0d:76:65:98:
                    15:92:6c:65:88:f4:25:04:7e:9e:4f:b7:18:56:c1:
                    77:39:bb:e9:a2:2e:ca:d6:03:64:25:ba:f0:37:f3:
                    e0:2f:22:28:25:4f:0d:1e:e5:a2:47:b4:39:3f:cd:
                    ee:f2:f5:16:0c:11:c3:b7:66:d1:18:5d:b5:2d:c4:
                    68:96:8d:f1:54:ca:99:69:4b:85:04:82:cd:cf:f8:
                    f4:ed:27:d2:22:4f:47:34:3b:3b:3e:a1:b2:b1:f3:
                    7f:a6:9e:34:b0:c2:32:b9:98:aa:43:d4:61:72:f0:
                    19:91:95:37:22:80:59:e6:38:ad:1b:c2:f8:66:c5:
                    c6:a2:d0:c0:ff:05:74:52:74:2f:db:cc:c9:ca:ed:
                    ba:55:cb:33:a4:7f:ff:e3:00:0c:02:e7:62:f9:24:
                    b7:1d
                Exponent: 65537 (0x10001)
        X509v3 extensions:
            X509v3 Key Usage: critical
                Certificate Sign, CRL Sign
            X509v3 Basic Constraints: critical
                CA:TRUE, pathlen:0
            X509v3 Subject Key Identifier: 
                00:08:2E:DD:9B:A6:EC:79:AC:E4:4A:45:37:E5:ED:49:48:DE:0F:05
            X509v3 Authority Key Identifier: 
                keyid:DE:11:7D:DE:6A:48:18:53:47:9F:F5:12:19:E0:38:DA:0B:D7:CD:67

            Authority Information Access: 
                CA Issuers - URI:http://green.no/ca/root-ca.cer

            X509v3 CRL Distribution Points: 

                Full Name:
                  URI:http://green.no/ca/root-ca.crl

    Signature Algorithm: sha1WithRSAEncryption
         8b:db:e7:a2:13:20:9c:95:86:07:ca:ff:33:79:b1:c1:cf:c0:
         e3:d3:ac:64:d9:ea:3d:26:4c:89:e6:66:a0:77:b0:f6:5c:92:
         26:ad:ec:9a:a7:21:9e:ce:06:01:01:35:13:b3:e3:03:f2:e7:
         c7:e5:31:6e:c6:d8:3d:10:41:c4:d1:af:3a:25:8c:84:11:a5:
         4e:23:b5:d5:84:20:cb:cc:95:ad:5a:91:58:c3:9d:65:b6:ef:
         f5:bf:e2:2b:a5:1b:80:9b:23:49:dc:44:e6:c8:6c:66:5f:3c:
         23:4c:d2:9d:83:a6:11:c3:df:30:2d:fa:39:98:78:cf:aa:6f:
         e8:78:79:d2:94:28:30:02:bd:e6:58:b2:eb:c5:3e:a7:1a:e9:
         1b:d5:49:f8:23:87:a2:f9:36:b7:19:78:7a:b5:57:aa:cb:9f:
         d1:b5:63:68:0c:b8:38:a6:4e:f5:63:ae:90:b1:6e:8e:4b:5c:
         ea:9a:e5:93:1c:fa:57:33:91:e5:1a:bb:87:35:52:34:a9:65:
         3d:56:61:93:6e:7f:8d:0d:c8:0d:07:d1:74:d6:62:6b:b8:5d:
         e7:f9:89:55:5f:d7:b3:5f:3a:28:90:3a:47:95:12:fb:c7:80:
         49:6b:e0:ad:c1:11:c9:c7:e6:82:65:4a:55:cb:c7:92:74:d7:
         0d:3e:74:6d
-----BEGIN CERTIFICATE-----
MIIECzCCAvOgAwIBAgIBAjANBgkqhkiG9w0BAQUFADBeMQswCQYDVQQGEwJOTzER
MA8GA1UECgwIR3JlZW4gQVMxJDAiBgNVBAsMG0dyZWVuIENlcnRpZmljYXRlIEF1
dGhvcml0eTEWMBQGA1UEAwwNR3JlZW4gUm9vdCBDQTAeFw0yMjAyMTUwNjAwMDJa
Fw0zMjAyMTUwNjAwMDJaMF0xCzAJBgNVBAYTAk5PMREwDwYDVQQKDAhHcmVlbiBB
UzEkMCIGA1UECwwbR3JlZW4gQ2VydGlmaWNhdGUgQXV0aG9yaXR5MRUwEwYDVQQD
DAxHcmVlbiBUTFMgQ0EwggEiMA0GCSqGSIb3DQEBAQUAA4IBDwAwggEKAoIBAQDR
SOCsERtXw87/4rff/JdwBJ90lGQNOom5KG317Tc4LHydG8CLCeVWn6qAiRQafk4j
+2vaxE33yJaUi22H4qu9OVVOTCWCwAWXR6esFvYy31jeU6HD8bEiD2C5WGzmf7y7
uxDJDXZlmBWSbGWI9CUEfp5PtxhWwXc5u+miLsrWA2QluvA38+AvIiglTw0e5aJH
tDk/ze7y9RYMEcO3ZtEYXbUtxGiWjfFUyplpS4UEgs3P+PTtJ9IiT0c0Ozs+obKx
83+mnjSwwjK5mKpD1GFy8BmRlTcigFnmOK0bwvhmxcai0MD/BXRSdC/bzMnK7bpV
yzOkf//jAAwC52L5JLcdAgMBAAGjgdQwgdEwDgYDVR0PAQH/BAQDAgEGMBIGA1Ud
EwEB/wQIMAYBAf8CAQAwHQYDVR0OBBYEFAAILt2bpux5rORKRTfl7UlI3g8FMB8G
A1UdIwQYMBaAFN4Rfd5qSBhTR5/1EhngONoL181nMDoGCCsGAQUFBwEBBC4wLDAq
BggrBgEFBQcwAoYeaHR0cDovL2dyZWVuLm5vL2NhL3Jvb3QtY2EuY2VyMC8GA1Ud
HwQoMCYwJKAioCCGHmh0dHA6Ly9ncmVlbi5uby9jYS9yb290LWNhLmNybDANBgkq
hkiG9w0BAQUFAAOCAQEAi9vnohMgnJWGB8r/M3mxwc/A49OsZNnqPSZMieZmoHew
9lySJq3smqchns4GAQE1E7PjA/Lnx+UxbsbYPRBBxNGvOiWMhBGlTiO11YQgy8yV
rVqRWMOdZbbv9b/iK6UbgJsjSdxE5shsZl88I0zSnYOmEcPfMC36OZh4z6pv6Hh5
0pQoMAK95liy68U+pxrpG9VJ+COHovk2txl4erVXqsuf0bVjaAy4OKZO9WOukLFu
jktc6prlkxz6VzOR5Rq7hzVSNKllPVZhk25/jQ3IDQfRdNZia7hd5/mJVV/Xs186
KJA6R5US+8eASWvgrcERycfmgmVKVcvHknTXDT50bQ==
-----END CERTIFICATE-----
