Certificate:
    Data:
        Version: 3 (0x2)
        Serial Number: 2 (0x2)
        Signature Algorithm: sha1WithRSAEncryption
        Issuer: C=NO, O=Green AS, OU=Green Certificate Authority, CN=Green Root CA
        Validity
            Not Before: Feb 10 22:06:20 2022 GMT
            Not After : Feb 10 22:06:20 2032 GMT
        Subject: C=NO, O=Green AS, OU=Green Certificate Authority, CN=Green TLS CA
        Subject Public Key Info:
            Public Key Algorithm: rsaEncryption
                RSA Public-Key: (2048 bit)
                Modulus:
                    00:d8:0c:45:05:43:a4:54:d4:2a:84:ef:26:00:db:
                    73:65:d8:29:71:26:96:4a:3f:d4:0b:c0:7a:0d:6b:
                    70:21:8f:45:88:5b:94:87:cc:6b:8d:72:38:f0:c6:
                    bc:65:6d:3c:ec:e7:a6:e3:a9:fd:0f:11:80:8f:6c:
                    0f:a1:8f:10:d5:56:85:bc:31:54:d7:50:f8:12:3d:
                    cd:d7:11:71:b0:5b:d6:01:83:74:f9:02:b3:84:04:
                    7d:a8:b4:e8:a0:31:96:a3:4f:54:7a:cf:11:b6:cc:
                    08:6a:0a:f6:ca:b5:22:49:db:9b:00:7b:e3:78:ab:
                    19:53:f3:b1:34:7c:7a:53:54:da:ad:ae:f6:e9:67:
                    77:55:e8:13:58:ee:d2:9f:61:e7:c4:59:7c:a1:a3:
                    51:e5:ff:36:05:6f:70:88:0f:bc:43:5e:eb:4b:e6:
                    51:4a:dc:4d:cc:a4:60:de:38:c7:b3:98:be:0b:fa:
                    07:90:bf:d9:55:bc:28:a7:8c:c6:9b:50:dc:8e:0f:
                    a6:df:0c:29:bf:5d:17:15:ba:98:29:6e:6e:0a:4b:
                    04:2f:c3:41:72:b0:64:c8:64:e4:20:50:46:9f:1e:
                    29:b3:2d:31:01:30:b8:60:b0:0a:d4:be:98:6d:08:
                    5b:c9:c8:09:97:c2:3f:0a:86:2e:56:9d:ce:9e:ec:
                    fa:df
                Exponent: 65537 (0x10001)
        X509v3 extensions:
            X509v3 Key Usage: critical
                Certificate Sign, CRL Sign
            X509v3 Basic Constraints: critical
                CA:TRUE, pathlen:0
            X509v3 Subject Key Identifier: 
                00:7F:1D:F0:D3:4B:1E:0F:F9:36:E1:27:CC:19:43:42:52:21:BB:D6
            X509v3 Authority Key Identifier: 
                keyid:2C:0A:18:32:1D:3C:A1:E2:6F:E4:DF:42:7E:B6:ED:D5:B8:86:5E:CE

            Authority Information Access: 
                CA Issuers - URI:http://green.no/ca/root-ca.cer

            X509v3 CRL Distribution Points: 

                Full Name:
                  URI:http://green.no/ca/root-ca.crl

    Signature Algorithm: sha1WithRSAEncryption
         6d:98:5b:e5:be:ec:f0:14:da:83:94:fc:f7:dd:ff:18:38:41:
         da:b7:73:95:15:e4:ea:77:d6:d3:52:b0:20:64:a3:b6:42:d8:
         05:c3:74:f5:58:d1:6a:11:6f:74:c9:ee:c7:70:1e:60:e2:23:
         4c:f6:c0:04:01:e7:f8:50:77:c9:b5:f4:98:e4:d5:d9:80:b9:
         12:8d:3c:21:a6:3d:c8:ec:37:e9:cf:5c:28:b7:a0:e9:4f:6d:
         1b:0a:02:f0:cb:14:74:40:29:16:22:77:2a:9c:38:1d:a6:f1:
         44:35:f4:e2:d3:d4:05:d6:5a:dc:11:37:4e:f2:4a:ff:a3:0d:
         0a:bc:2d:97:1e:18:4c:31:57:09:f2:94:a6:ff:b5:a1:d1:eb:
         f6:44:e7:3e:93:d3:3a:78:3c:35:2b:55:59:95:b0:3d:73:4e:
         75:09:8e:63:be:a5:c5:52:ec:3f:80:2e:92:56:8e:29:80:50:
         13:94:b1:be:8d:7b:0c:b7:9d:34:d4:f1:e6:5c:4a:e2:9b:92:
         19:7a:b9:eb:ab:2e:73:f6:1c:f3:e6:36:98:3c:95:e1:49:46:
         4b:33:a1:fa:38:f5:04:36:b2:0b:2e:a6:e7:ce:49:c4:26:47:
         88:46:d5:d8:75:05:fd:e0:ca:92:4a:b8:83:5e:10:54:3b:6b:
         dc:9b:c9:c5
-----BEGIN CERTIFICATE-----
MIIECzCCAvOgAwIBAgIBAjANBgkqhkiG9w0BAQUFADBeMQswCQYDVQQGEwJOTzER
MA8GA1UECgwIR3JlZW4gQVMxJDAiBgNVBAsMG0dyZWVuIENlcnRpZmljYXRlIEF1
dGhvcml0eTEWMBQGA1UEAwwNR3JlZW4gUm9vdCBDQTAeFw0yMjAyMTAyMjA2MjBa
Fw0zMjAyMTAyMjA2MjBaMF0xCzAJBgNVBAYTAk5PMREwDwYDVQQKDAhHcmVlbiBB
UzEkMCIGA1UECwwbR3JlZW4gQ2VydGlmaWNhdGUgQXV0aG9yaXR5MRUwEwYDVQQD
DAxHcmVlbiBUTFMgQ0EwggEiMA0GCSqGSIb3DQEBAQUAA4IBDwAwggEKAoIBAQDY
DEUFQ6RU1CqE7yYA23Nl2ClxJpZKP9QLwHoNa3Ahj0WIW5SHzGuNcjjwxrxlbTzs
56bjqf0PEYCPbA+hjxDVVoW8MVTXUPgSPc3XEXGwW9YBg3T5ArOEBH2otOigMZaj
T1R6zxG2zAhqCvbKtSJJ25sAe+N4qxlT87E0fHpTVNqtrvbpZ3dV6BNY7tKfYefE
WXyho1Hl/zYFb3CID7xDXutL5lFK3E3MpGDeOMezmL4L+geQv9lVvCinjMabUNyO
D6bfDCm/XRcVupgpbm4KSwQvw0FysGTIZOQgUEafHimzLTEBMLhgsArUvphtCFvJ
yAmXwj8Khi5Wnc6e7PrfAgMBAAGjgdQwgdEwDgYDVR0PAQH/BAQDAgEGMBIGA1Ud
EwEB/wQIMAYBAf8CAQAwHQYDVR0OBBYEFAB/HfDTSx4P+TbhJ8wZQ0JSIbvWMB8G
A1UdIwQYMBaAFCwKGDIdPKHib+TfQn627dW4hl7OMDoGCCsGAQUFBwEBBC4wLDAq
BggrBgEFBQcwAoYeaHR0cDovL2dyZWVuLm5vL2NhL3Jvb3QtY2EuY2VyMC8GA1Ud
HwQoMCYwJKAioCCGHmh0dHA6Ly9ncmVlbi5uby9jYS9yb290LWNhLmNybDANBgkq
hkiG9w0BAQUFAAOCAQEAbZhb5b7s8BTag5T8993/GDhB2rdzlRXk6nfW01KwIGSj
tkLYBcN09VjRahFvdMnux3AeYOIjTPbABAHn+FB3ybX0mOTV2YC5Eo08IaY9yOw3
6c9cKLeg6U9tGwoC8MsUdEApFiJ3Kpw4HabxRDX04tPUBdZa3BE3TvJK/6MNCrwt
lx4YTDFXCfKUpv+1odHr9kTnPpPTOng8NStVWZWwPXNOdQmOY76lxVLsP4AuklaO
KYBQE5Sxvo17DLedNNTx5lxK4puSGXq566suc/Yc8+Y2mDyV4UlGSzOh+jj1BDay
Cy6m585JxCZHiEbV2HUF/eDKkkq4g14QVDtr3JvJxQ==
-----END CERTIFICATE-----
